	.file	"main.cpp"
	.text
	.globl	_Z3Logii
	.def	_Z3Logii;	.scl	2;	.type	32;	.endef
	.seh_proc	_Z3Logii
_Z3Logii:
.LFB0:
	pushq	%rbp
	.seh_pushreg	%rbp
	movq	%rsp, %rbp
	.seh_setframe	%rbp, 0
	subq	$16, %rsp
	.seh_stackalloc	16
	.seh_endprologue
	movl	%ecx, 16(%rbp)
	movl	%edx, 24(%rbp)
	movl	16(%rbp), %eax
	movl	%eax, -4(%rbp)
	movl	24(%rbp), %eax
	movl	%eax, -8(%rbp)
	nop
	addq	$16, %rsp
	popq	%rbp
	ret
	.seh_endproc
	.globl	_Z4LogiPKc
	.def	_Z4LogiPKc;	.scl	2;	.type	32;	.endef
	.seh_proc	_Z4LogiPKc
_Z4LogiPKc:
.LFB1:
	pushq	%rbp
	.seh_pushreg	%rbp
	movq	%rsp, %rbp
	.seh_setframe	%rbp, 0
	subq	$16, %rsp
	.seh_stackalloc	16
	.seh_endprologue
	movq	%rcx, 16(%rbp)
	movq	16(%rbp), %rax
	movq	%rax, -8(%rbp)
	nop
	addq	$16, %rsp
	popq	%rbp
	ret
	.seh_endproc
	.def	__main;	.scl	2;	.type	32;	.endef
	.section .rdata,"dr"
.LC0:
	.ascii "456\0"
	.text
	.globl	main
	.def	main;	.scl	2;	.type	32;	.endef
	.seh_proc	main
main:
.LFB2:
	pushq	%rbp
	.seh_pushreg	%rbp
	movq	%rsp, %rbp
	.seh_setframe	%rbp, 0
	subq	$32, %rsp
	.seh_stackalloc	32
	.seh_endprologue
	call	__main
	movl	$123, %edx
	movl	$789, %ecx
	call	_Z3Logii
	leaq	.LC0(%rip), %rax
	movq	%rax, %rcx
	call	_Z4LogiPKc
	movl	$0, %eax
	addq	$32, %rsp
	popq	%rbp
	ret
	.seh_endproc
	.ident	"GCC: (Rev6, Built by MSYS2 project) 12.2.0"
